target datalayout = "e-m:e-p270:32:32-p271:32:32-p272:64:64-i64:64-i128:128-f80:128-n8:16:32:64-S128"
target triple = "x86_64-pc-linux-gnu"

%struct.SurfaceDataRasInfo = type { %struct.SurfaceDataBounds, ptr, i32, i32, i32, i32, ptr, ptr, ptr, ptr, ptr, ptr, i32, %union.anon.0 }
%struct.SurfaceDataBounds = type { i32, i32, i32, i32 }
%union.anon.0 = type { ptr, [56 x i8] }

; Function Attrs: nounwind uwtable
define hidden void @IntArgbToByteGrayConvert(ptr noundef %0, ptr noundef %1, i32 noundef %2, i32 noundef %3, ptr noundef %4, ptr noundef %5, ptr noundef %6, ptr noundef %7) #1 {
  %9 = alloca ptr, align 8
  %10 = alloca ptr, align 8
  %11 = alloca i32, align 4
  %12 = alloca i32, align 4
  %13 = alloca ptr, align 8
  %14 = alloca ptr, align 8
  %15 = alloca ptr, align 8
  %16 = alloca ptr, align 8
  %17 = alloca ptr, align 8
  %18 = alloca ptr, align 8
  %19 = alloca i32, align 4
  %20 = alloca i32, align 4
  %21 = alloca i32, align 4
  %22 = alloca i32, align 4
  %23 = alloca i32, align 4
  %24 = alloca i32, align 4
  %25 = alloca i32, align 4
  store ptr %0, ptr %9, align 8
  store ptr %1, ptr %10, align 8
  store i32 %2, ptr %11, align 4
  store i32 %3, ptr %12, align 4
  store ptr %4, ptr %13, align 8
  store ptr %5, ptr %14, align 8
  store ptr %6, ptr %15, align 8
  store ptr %7, ptr %16, align 8
  br label %26

26:                                               ; preds = %8
  %27 = load ptr, ptr %9, align 8
  store ptr %27, ptr %17, align 8
  %28 = load ptr, ptr %10, align 8
  store ptr %28, ptr %18, align 8
  %29 = load ptr, ptr %13, align 8
  %30 = getelementptr inbounds %struct.SurfaceDataRasInfo, ptr %29, i32 0, i32 4
  %31 = load i32, ptr %30, align 8
  store i32 %31, ptr %19, align 4
  %32 = load ptr, ptr %14, align 8
  %33 = getelementptr inbounds %struct.SurfaceDataRasInfo, ptr %32, i32 0, i32 4
  %34 = load i32, ptr %33, align 8
  store i32 %34, ptr %20, align 4
  %35 = load i32, ptr %11, align 4
  %36 = mul i32 %35, 4
  %37 = load i32, ptr %19, align 4
  %38 = sub i32 %37, %36
  store i32 %38, ptr %19, align 4
  %39 = load i32, ptr %11, align 4
  %40 = mul i32 %39, 1
  %41 = load i32, ptr %20, align 4
  %42 = sub i32 %41, %40
  store i32 %42, ptr %20, align 4
  br label %43

43:                                               ; preds = %101, %26
  %44 = load i32, ptr %11, align 4
  store i32 %44, ptr %21, align 4
  br label %45

45:                                               ; preds = %84, %43
  br label %46

46:                                               ; preds = %45
  br label %47

47:                                               ; preds = %46
  %48 = load ptr, ptr %17, align 8
  %49 = getelementptr inbounds i32, ptr %48, i64 0
  %50 = load i32, ptr %49, align 4
  store i32 %50, ptr %25, align 4
  br label %51

51:                                               ; preds = %47
  %52 = load i32, ptr %25, align 4
  %53 = and i32 %52, 255
  store i32 %53, ptr %24, align 4
  %54 = load i32, ptr %25, align 4
  %55 = ashr i32 %54, 8
  %56 = and i32 %55, 255
  store i32 %56, ptr %23, align 4
  %57 = load i32, ptr %25, align 4
  %58 = ashr i32 %57, 16
  %59 = and i32 %58, 255
  store i32 %59, ptr %22, align 4
  br label %60

60:                                               ; preds = %51
  br label %61

61:                                               ; preds = %60
  %62 = load i32, ptr %22, align 4
  %63 = mul nsw i32 77, %62
  %64 = load i32, ptr %23, align 4
  %65 = mul nsw i32 150, %64
  %66 = add nsw i32 %63, %65
  %67 = load i32, ptr %24, align 4
  %68 = mul nsw i32 29, %67
  %69 = add nsw i32 %66, %68
  %70 = add nsw i32 %69, 128
  %71 = sdiv i32 %70, 256
  %72 = trunc i32 %71 to i8
  %73 = load ptr, ptr %18, align 8
  %74 = getelementptr inbounds i8, ptr %73, i64 0
  store i8 %72, ptr %74, align 1
  br label %75

75:                                               ; preds = %61
  %76 = load ptr, ptr %17, align 8
  %77 = ptrtoint ptr %76 to i64
  %78 = add nsw i64 %77, 4
  %79 = inttoptr i64 %78 to ptr
  store ptr %79, ptr %17, align 8
  %80 = load ptr, ptr %18, align 8
  %81 = ptrtoint ptr %80 to i64
  %82 = add nsw i64 %81, 1
  %83 = inttoptr i64 %82 to ptr
  store ptr %83, ptr %18, align 8
  br label %84

84:                                               ; preds = %75
  %85 = load i32, ptr %21, align 4
  %86 = add i32 %85, -1
  store i32 %86, ptr %21, align 4
  %87 = icmp ugt i32 %86, 0
  br i1 %87, label %45, label %88, !llvm.loop !9

88:                                               ; preds = %84
  %89 = load ptr, ptr %17, align 8
  %90 = ptrtoint ptr %89 to i64
  %91 = load i32, ptr %19, align 4
  %92 = sext i32 %91 to i64
  %93 = add nsw i64 %90, %92
  %94 = inttoptr i64 %93 to ptr
  store ptr %94, ptr %17, align 8
  %95 = load ptr, ptr %18, align 8
  %96 = ptrtoint ptr %95 to i64
  %97 = load i32, ptr %20, align 4
  %98 = sext i32 %97 to i64
  %99 = add nsw i64 %96, %98
  %100 = inttoptr i64 %99 to ptr
  store ptr %100, ptr %18, align 8
  br label %101

101:                                              ; preds = %88
  %102 = load i32, ptr %12, align 4
  %103 = add i32 %102, -1
  store i32 %103, ptr %12, align 4
  %104 = icmp ugt i32 %103, 0
  br i1 %104, label %43, label %105, !llvm.loop !10

105:                                              ; preds = %101
  br label %106

106:                                              ; preds = %105
  ret void
}