; Function Attrs: nofree norecurse nosync nounwind memory(readwrite, inaccessiblemem: none) uwtable
define hidden void @IntArgbToByteGrayConvert(ptr noundef %0, ptr noundef %1, i32 noundef %2, i32 noundef %3, ptr nocapture noundef readonly %4, ptr nocapture noundef readonly %5, ptr nocapture readnone %6, ptr nocapture readnone %7) #1 {
  %9 = getelementptr inbounds i8, ptr %4, i64 32
  %10 = load i32, ptr %9, align 8
  %11 = getelementptr inbounds i8, ptr %5, i64 32
  %12 = load i32, ptr %11, align 8
  %13 = shl i32 %2, 2
  %14 = sub i32 %10, %13
  %15 = sub i32 %12, %2
  %16 = sext i32 %14 to i64
  %17 = sext i32 %15 to i64
  br label %18

18:                                               ; preds = %41, %8
  %.025 = phi ptr [ %1, %8 ], [ %45, %41 ]
  %.024 = phi ptr [ %0, %8 ], [ %43, %41 ]
  %.0 = phi i32 [ %3, %8 ], [ %46, %41 ]
  br label %19

19:                                               ; preds = %19, %18
  %.027 = phi i32 [ %2, %18 ], [ %40, %19 ]
  %.126 = phi ptr [ %.025, %18 ], [ %39, %19 ]
  %.1 = phi ptr [ %.024, %18 ], [ %36, %19 ]
  %20 = load i32, ptr %.1, align 4
  %21 = and i32 %20, 255
  %22 = lshr i32 %20, 8
  %23 = and i32 %22, 255
  %24 = lshr i32 %20, 16
  %25 = and i32 %24, 255
  %26 = mul nuw nsw i32 %25, 77
  %27 = mul nuw nsw i32 %23, 150
  %28 = mul nuw nsw i32 %21, 29
  %29 = add nuw nsw i32 %28, 128
  %30 = add nuw nsw i32 %29, %27
  %31 = add nuw nsw i32 %30, %26
  %32 = lshr i32 %31, 8
  %33 = trunc nuw i32 %32 to i8
  store i8 %33, ptr %.126, align 1
  %34 = ptrtoint ptr %.1 to i64
  %35 = add nsw i64 %34, 4
  %36 = inttoptr i64 %35 to ptr
  %37 = ptrtoint ptr %.126 to i64
  %38 = add nsw i64 %37, 1
  %39 = inttoptr i64 %38 to ptr
  %40 = add i32 %.027, -1
  %.not = icmp eq i32 %40, 0
  br i1 %.not, label %41, label %19, !llvm.loop !9

41:                                               ; preds = %19
  %42 = add nsw i64 %35, %16
  %43 = inttoptr i64 %42 to ptr
  %44 = add nsw i64 %38, %17
  %45 = inttoptr i64 %44 to ptr
  %46 = add i32 %.0, -1
  %.not29 = icmp eq i32 %46, 0
  br i1 %.not29, label %47, label %18, !llvm.loop !10

47:                                               ; preds = %41
  ret void
}